Certificate:
    Data:
        Version: 3 (0x2)
        Serial Number: 0 (0x0)
        Signature Algorithm: sha1WithRSAEncryption
        Issuer: C=US, ST=California, O=OCF, OU=LDAP, CN=tempest.ocf.berkeley.edu/emailAddress=ldap@ocf.berkeley.edu
        Validity
            Not Before: Aug 17 22:03:28 2010 GMT
            Not After : Aug 16 22:03:28 2013 GMT
        Subject: C=US, ST=California, O=OCF, OU=LDAP, CN=tempest.ocf.berkeley.edu/emailAddress=ldap@ocf.berkeley.edu
        Subject Public Key Info:
            Public Key Algorithm: rsaEncryption
            RSA Public Key: (1024 bit)
                Modulus (1024 bit):
                    00:bf:5c:e6:fa:cf:25:71:24:e1:b5:11:2f:8f:b3:
                    d3:df:24:35:f7:52:a3:b2:6a:87:a0:84:58:e5:76:
                    3f:96:fe:9b:65:f1:98:cb:a9:c4:bc:8f:c7:8f:0f:
                    76:f0:dc:49:ae:2e:42:3e:c5:5a:8f:e5:aa:ef:5b:
                    8a:c5:32:41:f3:42:4d:fa:85:f4:d0:6f:6f:f2:05:
                    38:87:4f:a5:da:4b:7a:73:7b:ce:ff:b4:dc:72:54:
                    87:c6:bc:2a:e0:3f:d7:e1:a9:0e:15:2c:c5:d8:79:
                    7a:23:d2:54:48:51:1f:9b:61:21:bf:e8:e2:e8:34:
                    fc:0e:06:a1:59:68:0f:bc:93
                Exponent: 65537 (0x10001)
        X509v3 extensions:
            X509v3 Subject Key Identifier: 
                36:70:48:40:7B:6B:49:A0:B0:AC:EC:E5:D7:D7:CE:64:D4:32:20:30
            X509v3 Authority Key Identifier: 
                keyid:36:70:48:40:7B:6B:49:A0:B0:AC:EC:E5:D7:D7:CE:64:D4:32:20:30
                DirName:/C=US/ST=California/O=OCF/OU=LDAP/CN=tempest.ocf.berkeley.edu/emailAddress=ldap@ocf.berkeley.edu
                serial:00

            X509v3 Basic Constraints: 
                CA:TRUE
    Signature Algorithm: sha1WithRSAEncryption
        9f:d9:3d:1e:8b:5d:1c:92:77:eb:47:ec:c0:94:47:fe:df:40:
        a6:b1:d4:f8:e4:81:05:8d:18:7a:14:11:ca:7f:8a:80:6c:b1:
        17:86:b7:b3:75:dc:80:16:fe:21:89:7a:b9:88:03:76:3d:5d:
        e8:df:46:53:dc:50:0e:af:8b:1c:60:a1:79:a0:de:c5:64:50:
        d4:0d:70:62:e3:ba:59:c4:cf:95:bf:b3:d4:71:a6:6f:2f:33:
        2f:8a:f2:55:0e:bc:d8:1c:5a:2f:42:e2:9f:10:bd:d3:f2:52:
        c6:63:82:63:9a:9b:5b:2d:2d:95:97:eb:b9:7e:46:56:b5:c3:
        96:dd
-----BEGIN CERTIFICATE-----
MIIDcTCCAtqgAwIBAgIBADANBgkqhkiG9w0BAQUFADCBiDELMAkGA1UEBhMCVVMx
EzARBgNVBAgTCkNhbGlmb3JuaWExDDAKBgNVBAoTA09DRjENMAsGA1UECxMETERB
UDEhMB8GA1UEAxMYdGVtcGVzdC5vY2YuYmVya2VsZXkuZWR1MSQwIgYJKoZIhvcN
AQkBFhVsZGFwQG9jZi5iZXJrZWxleS5lZHUwHhcNMTAwODE3MjIwMzI4WhcNMTMw
ODE2MjIwMzI4WjCBiDELMAkGA1UEBhMCVVMxEzARBgNVBAgTCkNhbGlmb3JuaWEx
DDAKBgNVBAoTA09DRjENMAsGA1UECxMETERBUDEhMB8GA1UEAxMYdGVtcGVzdC5v
Y2YuYmVya2VsZXkuZWR1MSQwIgYJKoZIhvcNAQkBFhVsZGFwQG9jZi5iZXJrZWxl
eS5lZHUwgZ8wDQYJKoZIhvcNAQEBBQADgY0AMIGJAoGBAL9c5vrPJXEk4bURL4+z
098kNfdSo7Jqh6CEWOV2P5b+m2XxmMupxLyPx48PdvDcSa4uQj7FWo/lqu9bisUy
QfNCTfqF9NBvb/IFOIdPpdpLenN7zv+03HJUh8a8KuA/1+GpDhUsxdh5eiPSVEhR
H5thIb/o4ug0/A4GoVloD7yTAgMBAAGjgegwgeUwHQYDVR0OBBYEFDZwSEB7a0mg
sKzs5dfXzmTUMiAwMIG1BgNVHSMEga0wgaqAFDZwSEB7a0mgsKzs5dfXzmTUMiAw
oYGOpIGLMIGIMQswCQYDVQQGEwJVUzETMBEGA1UECBMKQ2FsaWZvcm5pYTEMMAoG
A1UEChMDT0NGMQ0wCwYDVQQLEwRMREFQMSEwHwYDVQQDExh0ZW1wZXN0Lm9jZi5i
ZXJrZWxleS5lZHUxJDAiBgkqhkiG9w0BCQEWFWxkYXBAb2NmLmJlcmtlbGV5LmVk
dYIBADAMBgNVHRMEBTADAQH/MA0GCSqGSIb3DQEBBQUAA4GBAJ/ZPR6LXRySd+tH
7MCUR/7fQKax1PjkgQWNGHoUEcp/ioBssReGt7N13IAW/iGJermIA3Y9XejfRlPc
UA6vixxgoXmg3sVkUNQNcGLjulnEz5W/s9Rxpm8vMy+K8lUOvNgcWi9C4p8QvdPy
UsZjgmOam1stLZWX67l+Rla1w5bd
-----END CERTIFICATE-----
